target datalayout = "e-m:e-p270:32:32-p271:32:32-p272:64:64-i64:64-i128:128-f80:128-n8:16:32:64-S128"
target triple = "x86_64-pc-linux-gnu"

%struct.tMPI_Thread_key_t = type { %struct.tMPI_Atomic, ptr }
%struct.tMPI_Atomic = type { i32, [60 x i8] }
%struct.tmpi_datatype_ = type { i64, ptr, i32, ptr, i32 }
%struct.tmpi_comm_ = type { %struct.tmpi_group_, %struct.tMPI_Barrier_t, ptr, ptr, i32, ptr, ptr, ptr, ptr, %struct.tMPI_Thread_mutex_t, %struct.tMPI_Thread_cond_t, %struct.tMPI_Thread_cond_t, ptr, ptr, ptr, ptr, ptr, ptr, %struct.tMPI_Atomic }
%struct.tmpi_group_ = type { i32, ptr }
%struct.tMPI_Barrier_t = type { %struct.tMPI_Atomic, i32, %struct.tMPI_Atomic }
%struct.tMPI_Thread_mutex_t = type { %struct.tMPI_Atomic, ptr }
%struct.tMPI_Thread_cond_t = type { %struct.tMPI_Atomic, ptr }
%struct.tMPI_Atomic_ptr = type { ptr, [56 x i8] }

@id_key = external global %struct.tMPI_Thread_key_t, align 8

; Function Attrs: mustprogress uwtable
define noundef i32 @_Z14tMPI_AllreducePKvPviP14tmpi_datatype_7tMPI_OpP10tmpi_comm_(ptr noundef %0, ptr noundef %1, i32 noundef %2, ptr noundef %3, i32 noundef %4, ptr noundef %5) #0 {
  %7 = alloca i32, align 4
  %8 = alloca ptr, align 8
  %9 = alloca ptr, align 8
  %10 = alloca i32, align 4
  %11 = alloca ptr, align 8
  %12 = alloca i32, align 4
  %13 = alloca ptr, align 8
  %14 = alloca ptr, align 8
  %15 = alloca ptr, align 8
  %16 = alloca %struct.tMPI_Thread_key_t, align 8
  %17 = alloca i32, align 4
  %18 = alloca i32, align 4
  %19 = alloca i32, align 4
  store ptr %0, ptr %8, align 8, !tbaa !3
  store ptr %1, ptr %9, align 8, !tbaa !3
  store i32 %2, ptr %10, align 4, !tbaa !9
  store ptr %3, ptr %11, align 8, !tbaa !7
  store i32 %4, ptr %12, align 4, !tbaa !11
  store ptr %5, ptr %13, align 8, !tbaa !13
  call void @llvm.lifetime.start.p0(i64 8, ptr %14) #6
  store ptr null, ptr %14, align 8, !tbaa !3
  call void @llvm.lifetime.start.p0(i64 8, ptr %15) #6
  call void @llvm.memcpy.p0.p0.i64(ptr align 8 %16, ptr align 8 @id_key, i64 72, i1 false), !tbaa.struct !20
  %20 = call noundef ptr @_Z23tMPI_Thread_getspecific17tMPI_Thread_key_t(ptr noundef byval(%struct.tMPI_Thread_key_t) align 8 %16)
  store ptr %20, ptr %15, align 8, !tbaa !24
  call void @llvm.lifetime.start.p0(i64 4, ptr %17) #6
  %21 = load ptr, ptr %13, align 8, !tbaa !13
  %22 = load ptr, ptr %15, align 8, !tbaa !24
  %23 = call noundef i32 @_Z19tMPI_Comm_seek_rankP10tmpi_comm_P11tmpi_thread(ptr noundef %21, ptr noundef %22)
  store i32 %23, ptr %17, align 4, !tbaa !9
  call void @llvm.lifetime.start.p0(i64 4, ptr %18) #6
  %24 = load i32, ptr %10, align 4, !tbaa !9
  %25 = icmp eq i32 %24, 0
  br i1 %25, label %26, label %27

26:                                               ; preds = %6
  store i32 0, ptr %7, align 4
  store i32 1, ptr %19, align 4
  br label %78

27:                                               ; preds = %6
  %28 = load ptr, ptr %9, align 8, !tbaa !3
  %29 = icmp ne ptr %28, null
  br i1 %29, label %33, label %30

30:                                               ; preds = %27
  %31 = load ptr, ptr %13, align 8, !tbaa !13
  %32 = call noundef i32 @_Z10tMPI_ErrorP10tmpi_comm_i(ptr noundef %31, i32 noundef 17)
  store i32 %32, ptr %7, align 4
  store i32 1, ptr %19, align 4
  br label %78

33:                                               ; preds = %27
  %34 = load ptr, ptr %8, align 8, !tbaa !3
  %35 = icmp eq ptr %34, null
  br i1 %35, label %36, label %38

36:                                               ; preds = %33
  %37 = load ptr, ptr %9, align 8, !tbaa !3
  store ptr %37, ptr %8, align 8, !tbaa !3
  br label %38

38:                                               ; preds = %36, %33
  %39 = load ptr, ptr %8, align 8, !tbaa !3
  %40 = load ptr, ptr %9, align 8, !tbaa !3
  %41 = load i32, ptr %10, align 4, !tbaa !9
  %42 = load ptr, ptr %11, align 8, !tbaa !7
  %43 = load i32, ptr %12, align 4, !tbaa !11
  %44 = load ptr, ptr %13, align 8, !tbaa !13
  %45 = call noundef i32 @_Z16tMPI_Reduce_fastPKvPviP14tmpi_datatype_7tMPI_OpiP10tmpi_comm_(ptr noundef %39, ptr noundef %40, i32 noundef %41, ptr noundef %42, i32 noundef %43, i32 noundef 0, ptr noundef %44)
  store i32 %45, ptr %18, align 4, !tbaa !9
  %46 = load ptr, ptr %13, align 8, !tbaa !13
  %47 = getelementptr inbounds nuw %struct.tmpi_comm_, ptr %46, i32 0, i32 1
  %48 = call noundef i32 @_Z17tMPI_Barrier_waitP14tMPI_Barrier_t(ptr noundef %47)
  %49 = load ptr, ptr %13, align 8, !tbaa !13
  %50 = getelementptr inbounds nuw %struct.tmpi_comm_, ptr %49, i32 0, i32 8
  %51 = load ptr, ptr %50, align 8, !tbaa !47
  %52 = getelementptr inbounds %struct.tMPI_Atomic_ptr, ptr %51, i64 0
  %53 = getelementptr inbounds nuw %struct.tMPI_Atomic_ptr, ptr %52, i32 0, i32 0
  %54 = load ptr, ptr %53, align 8, !tbaa !45
  store ptr %54, ptr %14, align 8, !tbaa !3
  %55 = load i32, ptr %17, align 4, !tbaa !9
  %56 = icmp ne i32 %55, 0
  br i1 %56, label %57, label %73

57:                                               ; preds = %38
  %58 = load ptr, ptr %14, align 8, !tbaa !3
  %59 = load ptr, ptr %9, align 8, !tbaa !3
  %60 = icmp eq ptr %58, %59
  br i1 %60, label %61, label %64

61:                                               ; preds = %57
  %62 = load ptr, ptr %13, align 8, !tbaa !13
  %63 = call noundef i32 @_Z10tMPI_ErrorP10tmpi_comm_i(ptr noundef %62, i32 noundef 14)
  store i32 %63, ptr %7, align 4
  store i32 1, ptr %19, align 4
  br label %78

64:                                               ; preds = %57
  %65 = load ptr, ptr %9, align 8, !tbaa !3
  %66 = load ptr, ptr %14, align 8, !tbaa !3
  %67 = load ptr, ptr %11, align 8, !tbaa !7
  %68 = getelementptr inbounds nuw %struct.tmpi_datatype_, ptr %67, i32 0, i32 0
  %69 = load i64, ptr %68, align 8, !tbaa !54
  %70 = load i32, ptr %10, align 4, !tbaa !9
  %71 = sext i32 %70 to i64
  %72 = mul i64 %69, %71
  call void @llvm.memcpy.p0.p0.i64(ptr align 1 %65, ptr align 1 %66, i64 %72, i1 false)
  br label %73

73:                                               ; preds = %64, %38
  %74 = load ptr, ptr %13, align 8, !tbaa !13
  %75 = getelementptr inbounds nuw %struct.tmpi_comm_, ptr %74, i32 0, i32 1
  %76 = call noundef i32 @_Z17tMPI_Barrier_waitP14tMPI_Barrier_t(ptr noundef %75)
  %77 = load i32, ptr %18, align 4, !tbaa !9
  store i32 %77, ptr %7, align 4
  store i32 1, ptr %19, align 4
  br label %78

78:                                               ; preds = %73, %61, %30, %26
  call void @llvm.lifetime.end.p0(i64 4, ptr %18) #6
  call void @llvm.lifetime.end.p0(i64 4, ptr %17) #6
  call void @llvm.lifetime.end.p0(i64 8, ptr %15) #6
  call void @llvm.lifetime.end.p0(i64 8, ptr %14) #6
  %79 = load i32, ptr %7, align 4
  ret i32 %79
}