; Function Attrs: mustprogress uwtable
define noundef i32 @_Z14tMPI_AllreducePKvPviP14tmpi_datatype_7tMPI_OpP10tmpi_comm_(ptr noundef %0, ptr noundef %1, i32 noundef %2, ptr noundef readonly captures(none) %3, i32 noundef %4, ptr noundef %5) local_unnamed_addr #0 {
  %7 = tail call noundef ptr @_Z23tMPI_Thread_getspecific17tMPI_Thread_key_t(ptr noundef nonnull byval(%struct.tMPI_Thread_key_t) align 8 @id_key)
  %8 = tail call noundef i32 @_Z19tMPI_Comm_seek_rankP10tmpi_comm_P11tmpi_thread(ptr noundef %5, ptr noundef %7)
  %9 = icmp eq i32 %2, 0
  br i1 %9, label %31, label %10

10:                                               ; preds = %6
  %.not = icmp eq ptr %1, null
  br i1 %.not, label %11, label %13

11:                                               ; preds = %10
  %12 = tail call noundef i32 @_Z10tMPI_ErrorP10tmpi_comm_i(ptr noundef %5, i32 noundef 17)
  br label %31

13:                                               ; preds = %10
  %14 = icmp eq ptr %0, null
  %spec.select = select i1 %14, ptr %1, ptr %0
  %15 = tail call noundef i32 @_Z16tMPI_Reduce_fastPKvPviP14tmpi_datatype_7tMPI_OpiP10tmpi_comm_(ptr noundef nonnull %spec.select, ptr noundef nonnull %1, i32 noundef %2, ptr noundef %3, i32 noundef %4, i32 noundef 0, ptr noundef %5)
  %16 = getelementptr inbounds nuw i8, ptr %5, i64 16
  %17 = tail call noundef i32 @_Z17tMPI_Barrier_waitP14tMPI_Barrier_t(ptr noundef nonnull %16)
  %18 = getelementptr inbounds nuw i8, ptr %5, i64 200
  %19 = load ptr, ptr %18, align 8, !tbaa !36
  %20 = load ptr, ptr %19, align 8, !tbaa !34
  %.not30 = icmp eq i32 %8, 0
  br i1 %.not30, label %29, label %21

21:                                               ; preds = %13
  %22 = icmp eq ptr %20, %1
  br i1 %22, label %23, label %25

23:                                               ; preds = %21
  %24 = tail call noundef i32 @_Z10tMPI_ErrorP10tmpi_comm_i(ptr noundef nonnull %5, i32 noundef 14)
  br label %31

25:                                               ; preds = %21
  %26 = load i64, ptr %3, align 8, !tbaa !45
  %27 = sext i32 %2 to i64
  %28 = mul i64 %26, %27
  tail call void @llvm.memcpy.p0.p0.i64(ptr nonnull align 1 %1, ptr align 1 %20, i64 %28, i1 false)
  br label %29

29:                                               ; preds = %25, %13
  %30 = tail call noundef i32 @_Z17tMPI_Barrier_waitP14tMPI_Barrier_t(ptr noundef nonnull %16)
  br label %31

31:                                               ; preds = %6, %29, %23, %11
  %.0 = phi i32 [ %24, %23 ], [ %15, %29 ], [ %12, %11 ], [ 0, %6 ]
  ret i32 %.0
}